target datalayout = "e-m:e-p270:32:32-p271:32:32-p272:64:64-i64:64-i128:128-f80:128-n8:16:32:64-S128"
target triple = "x86_64-pc-linux-gnu"

%struct.ScanKeyData = type { i32, i16, i16, i32, i32, %struct.FmgrInfo, i64 }
%struct.FmgrInfo = type { ptr, i32, i16, i8, i8, i8, ptr, ptr, ptr }
%struct.IndexArrayKeyInfo = type { ptr, ptr, i32, i32, ptr, ptr }

; Function Attrs: nounwind uwtable
define dso_local zeroext i1 @ExecIndexAdvanceArrayKeys(ptr noundef %0, i32 noundef %1) #0 {
  %3 = alloca ptr, align 8
  %4 = alloca i32, align 4
  %5 = alloca i8, align 1
  %6 = alloca i32, align 4
  %7 = alloca ptr, align 8
  %8 = alloca i32, align 4
  %9 = alloca i32, align 4
  %10 = alloca ptr, align 8
  %11 = alloca ptr, align 8
  %12 = alloca i32, align 4
  store ptr %0, ptr %3, align 8
  store i32 %1, ptr %4, align 4
  call void @llvm.lifetime.start.p0(i64 1, ptr %5) #7
  store i8 0, ptr %5, align 1
  call void @llvm.lifetime.start.p0(i64 4, ptr %6) #7
  %13 = load i32, ptr %4, align 4
  %14 = sub i32 %13, 1
  store i32 %14, ptr %6, align 4
  br label %15

15:                                               ; preds = %93, %2
  %16 = load i32, ptr %6, align 4
  %17 = icmp sge i32 %16, 0
  br i1 %17, label %18, label %96

18:                                               ; preds = %15
  call void @llvm.lifetime.start.p0(i64 8, ptr %7) #7
  %19 = load ptr, ptr %3, align 8
  %20 = load i32, ptr %6, align 4
  %21 = sext i32 %20 to i64
  %22 = getelementptr inbounds %struct.IndexArrayKeyInfo, ptr %19, i64 %21
  %23 = getelementptr inbounds nuw %struct.IndexArrayKeyInfo, ptr %22, i32 0, i32 0
  %24 = load ptr, ptr %23, align 8
  store ptr %24, ptr %7, align 8
  call void @llvm.lifetime.start.p0(i64 4, ptr %8) #7
  %25 = load ptr, ptr %3, align 8
  %26 = load i32, ptr %6, align 4
  %27 = sext i32 %26 to i64
  %28 = getelementptr inbounds %struct.IndexArrayKeyInfo, ptr %25, i64 %27
  %29 = getelementptr inbounds nuw %struct.IndexArrayKeyInfo, ptr %28, i32 0, i32 2
  %30 = load i32, ptr %29, align 8
  store i32 %30, ptr %8, align 4
  call void @llvm.lifetime.start.p0(i64 4, ptr %9) #7
  %31 = load ptr, ptr %3, align 8
  %32 = load i32, ptr %6, align 4
  %33 = sext i32 %32 to i64
  %34 = getelementptr inbounds %struct.IndexArrayKeyInfo, ptr %31, i64 %33
  %35 = getelementptr inbounds nuw %struct.IndexArrayKeyInfo, ptr %34, i32 0, i32 3
  %36 = load i32, ptr %35, align 4
  store i32 %36, ptr %9, align 4
  call void @llvm.lifetime.start.p0(i64 8, ptr %10) #7
  %37 = load ptr, ptr %3, align 8
  %38 = load i32, ptr %6, align 4
  %39 = sext i32 %38 to i64
  %40 = getelementptr inbounds %struct.IndexArrayKeyInfo, ptr %37, i64 %39
  %41 = getelementptr inbounds nuw %struct.IndexArrayKeyInfo, ptr %40, i32 0, i32 4
  %42 = load ptr, ptr %41, align 8
  store ptr %42, ptr %10, align 8
  call void @llvm.lifetime.start.p0(i64 8, ptr %11) #7
  %43 = load ptr, ptr %3, align 8
  %44 = load i32, ptr %6, align 4
  %45 = sext i32 %44 to i64
  %46 = getelementptr inbounds %struct.IndexArrayKeyInfo, ptr %43, i64 %45
  %47 = getelementptr inbounds nuw %struct.IndexArrayKeyInfo, ptr %46, i32 0, i32 5
  %48 = load ptr, ptr %47, align 8
  store ptr %48, ptr %11, align 8
  %49 = load i32, ptr %8, align 4
  %50 = load i32, ptr %9, align 4
  %51 = icmp sge i32 %49, %50
  br i1 %51, label %52, label %53

52:                                               ; preds = %18
  store i32 0, ptr %8, align 4
  store i8 0, ptr %5, align 1
  br label %54

53:                                               ; preds = %18
  store i8 1, ptr %5, align 1
  br label %54

54:                                               ; preds = %53, %52
  %55 = load ptr, ptr %10, align 8
  %56 = load i32, ptr %8, align 4
  %57 = sext i32 %56 to i64
  %58 = getelementptr inbounds i64, ptr %55, i64 %57
  %59 = load i64, ptr %58, align 8
  %60 = load ptr, ptr %7, align 8
  %61 = getelementptr inbounds nuw %struct.ScanKeyData, ptr %60, i32 0, i32 6
  store i64 %59, ptr %61, align 8
  %62 = load ptr, ptr %11, align 8
  %63 = load i32, ptr %8, align 4
  %64 = sext i32 %63 to i64
  %65 = getelementptr inbounds i8, ptr %62, i64 %64
  %66 = load i8, ptr %65, align 1, !range !6, !noundef !7
  %67 = trunc i8 %66 to i1
  br i1 %67, label %68, label %73

68:                                               ; preds = %54
  %69 = load ptr, ptr %7, align 8
  %70 = getelementptr inbounds nuw %struct.ScanKeyData, ptr %69, i32 0, i32 0
  %71 = load i32, ptr %70, align 8
  %72 = or i32 %71, 1
  store i32 %72, ptr %70, align 8
  br label %78

73:                                               ; preds = %54
  %74 = load ptr, ptr %7, align 8
  %75 = getelementptr inbounds nuw %struct.ScanKeyData, ptr %74, i32 0, i32 0
  %76 = load i32, ptr %75, align 8
  %77 = and i32 %76, -2
  store i32 %77, ptr %75, align 8
  br label %78

78:                                               ; preds = %73, %68
  %79 = load i32, ptr %8, align 4
  %80 = add i32 %79, 1
  %81 = load ptr, ptr %3, align 8
  %82 = load i32, ptr %6, align 4
  %83 = sext i32 %82 to i64
  %84 = getelementptr inbounds %struct.IndexArrayKeyInfo, ptr %81, i64 %83
  %85 = getelementptr inbounds nuw %struct.IndexArrayKeyInfo, ptr %84, i32 0, i32 2
  store i32 %80, ptr %85, align 8
  %86 = load i8, ptr %5, align 1, !range !6, !noundef !7
  %87 = trunc i8 %86 to i1
  br i1 %87, label %88, label %89

88:                                               ; preds = %78
  store i32 2, ptr %12, align 4
  br label %90

89:                                               ; preds = %78
  store i32 0, ptr %12, align 4
  br label %90

90:                                               ; preds = %89, %88
  call void @llvm.lifetime.end.p0(i64 8, ptr %11) #7
  call void @llvm.lifetime.end.p0(i64 8, ptr %10) #7
  call void @llvm.lifetime.end.p0(i64 4, ptr %9) #7
  call void @llvm.lifetime.end.p0(i64 4, ptr %8) #7
  call void @llvm.lifetime.end.p0(i64 8, ptr %7) #7
  %91 = load i32, ptr %12, align 4
  switch i32 %91, label %99 [
    i32 0, label %92
    i32 2, label %96
  ]

92:                                               ; preds = %90
  br label %93

93:                                               ; preds = %92
  %94 = load i32, ptr %6, align 4
  %95 = add i32 %94, -1
  store i32 %95, ptr %6, align 4
  br label %15, !llvm.loop !11

96:                                               ; preds = %90, %15
  %97 = load i8, ptr %5, align 1, !range !6, !noundef !7
  %98 = trunc i8 %97 to i1
  store i32 1, ptr %12, align 4
  call void @llvm.lifetime.end.p0(i64 4, ptr %6) #7
  call void @llvm.lifetime.end.p0(i64 1, ptr %5) #7
  ret i1 %98

99:                                               ; preds = %90
  unreachable
}