; Function Attrs: nofree norecurse nosync nounwind memory(readwrite, inaccessiblemem: none) uwtable
define dso_local noundef zeroext i1 @ExecIndexAdvanceArrayKeys(ptr noundef captures(none) %0, i32 noundef %1) local_unnamed_addr #3 {
  %3 = zext i32 %1 to i64
  br label %4

4:                                                ; preds = %7, %2
  %indvars.iv = phi i64 [ %indvars.iv.next, %7 ], [ %3, %2 ]
  %indvars.iv.next = add nsw i64 %indvars.iv, -1
  %5 = and i64 %indvars.iv.next, 2147483648
  %6 = icmp eq i64 %5, 0
  br i1 %6, label %7, label %28

7:                                                ; preds = %4
  %8 = and i64 %indvars.iv.next, 2147483647
  %9 = getelementptr inbounds nuw %struct.IndexArrayKeyInfo, ptr %0, i64 %8
  %10 = load ptr, ptr %9, align 8
  %11 = getelementptr inbounds nuw i8, ptr %9, i64 16
  %12 = load i32, ptr %11, align 8
  %13 = getelementptr inbounds nuw i8, ptr %9, i64 20
  %14 = load i32, ptr %13, align 4
  %15 = getelementptr inbounds nuw i8, ptr %9, i64 24
  %16 = load ptr, ptr %15, align 8
  %17 = getelementptr inbounds nuw i8, ptr %9, i64 32
  %18 = load ptr, ptr %17, align 8
  %.not = icmp slt i32 %12, %14
  %. = select i1 %.not, i32 %12, i32 0
  %19 = sext i32 %. to i64
  %20 = getelementptr inbounds i64, ptr %16, i64 %19
  %21 = load i64, ptr %20, align 8
  %22 = getelementptr inbounds nuw i8, ptr %10, i64 64
  store i64 %21, ptr %22, align 8
  %23 = getelementptr inbounds i8, ptr %18, i64 %19
  %24 = load i8, ptr %23, align 1, !range !4, !noundef !5
  %masksel = zext nneg i8 %24 to i32
  %25 = load i32, ptr %10, align 8
  %26 = and i32 %25, -2
  %storemerge = or disjoint i32 %26, %masksel
  store i32 %storemerge, ptr %10, align 8
  %27 = add i32 %., 1
  store i32 %27, ptr %11, align 8
  br i1 %.not, label %28, label %4

28:                                               ; preds = %7, %4
  ret i1 %6
}